target datalayout = "e-m:e-p270:32:32-p271:32:32-p272:64:64-i64:64-i128:128-f80:128-n8:16:32:64-S128"
target triple = "x86_64-unknown-linux-gnu"

@__const._ZN6hermes2vm13monthFromTimeEd.kDaysInMonthNonLeap = private unnamed_addr constant [11 x i8] c"\1F\1C\1F\1E\1F\1E\1F\1F\1E\1F\1E", align 1

; Function Attrs: mustprogress nounwind uwtable
define linkonce_odr noundef double @_ZSt4fmodIdiEN9__gnu_cxx9__promoteIDTplcvNS1_IT_Xsr3std12__is_integerIS2_EE7__valueEE6__typeELi0EcvNS1_IT0_Xsr3std12__is_integerIS5_EE7__valueEE6__typeELi0EEXsr3std12__is_integerIS8_EE7__valueEE6__typeES2_S5_(double noundef %__x, i32 noundef %__y) #0 comdat {
entry:
  %__x.addr = alloca double, align 8
  %__y.addr = alloca i32, align 4
  store double %__x, ptr %__x.addr, align 8
  store i32 %__y, ptr %__y.addr, align 4
  %0 = load double, ptr %__x.addr, align 8
  %1 = load i32, ptr %__y.addr, align 4
  %conv = sitofp i32 %1 to double
  %call = call double @fmod(double noundef %0, double noundef %conv) #7
  ret double %call
}

; Function Attrs: mustprogress nounwind uwtable
define internal noundef zeroext i1 @_ZN6hermes2vmL10isLeapYearEd(double noundef %y) #0 {
entry:
  %retval = alloca i1, align 1
  %y.addr = alloca double, align 8
  store double %y, ptr %y.addr, align 8
  %0 = load double, ptr %y.addr, align 8
  %call = call noundef double @_ZSt4fmodIdiEN9__gnu_cxx9__promoteIDTplcvNS1_IT_Xsr3std12__is_integerIS2_EE7__valueEE6__typeELi0EcvNS1_IT0_Xsr3std12__is_integerIS5_EE7__valueEE6__typeELi0EEXsr3std12__is_integerIS8_EE7__valueEE6__typeES2_S5_(double noundef %0, i32 noundef 4)
  %cmp = fcmp une double %call, 0.000000e+00
  br i1 %cmp, label %if.then, label %if.end

if.then:                                          ; preds = %entry
  store i1 false, ptr %retval, align 1
  br label %return

if.end:                                           ; preds = %entry
  %1 = load double, ptr %y.addr, align 8
  %call1 = call noundef double @_ZSt4fmodIdiEN9__gnu_cxx9__promoteIDTplcvNS1_IT_Xsr3std12__is_integerIS2_EE7__valueEE6__typeELi0EcvNS1_IT0_Xsr3std12__is_integerIS5_EE7__valueEE6__typeELi0EEXsr3std12__is_integerIS8_EE7__valueEE6__typeES2_S5_(double noundef %1, i32 noundef 100)
  %cmp2 = fcmp une double %call1, 0.000000e+00
  br i1 %cmp2, label %if.then3, label %if.end4

if.then3:                                         ; preds = %if.end
  store i1 true, ptr %retval, align 1
  br label %return

if.end4:                                          ; preds = %if.end
  %2 = load double, ptr %y.addr, align 8
  %call5 = call noundef double @_ZSt4fmodIdiEN9__gnu_cxx9__promoteIDTplcvNS1_IT_Xsr3std12__is_integerIS2_EE7__valueEE6__typeELi0EcvNS1_IT0_Xsr3std12__is_integerIS5_EE7__valueEE6__typeELi0EEXsr3std12__is_integerIS8_EE7__valueEE6__typeES2_S5_(double noundef %2, i32 noundef 400)
  %cmp6 = fcmp une double %call5, 0.000000e+00
  br i1 %cmp6, label %if.then7, label %if.end8

if.then7:                                         ; preds = %if.end4
  store i1 false, ptr %retval, align 1
  br label %return

if.end8:                                          ; preds = %if.end4
  store i1 true, ptr %retval, align 1
  br label %return

return:                                           ; preds = %if.end8, %if.then7, %if.then3, %if.then
  %3 = load i1, ptr %retval, align 1
  ret i1 %3
}

; Function Attrs: mustprogress nounwind uwtable
define hidden noundef i32 @_ZN6hermes2vm10daysInYearEd(double noundef %y) #0 {
entry:
  %y.addr = alloca double, align 8
  store double %y, ptr %y.addr, align 8
  %0 = load double, ptr %y.addr, align 8
  %call = call noundef zeroext i1 @_ZN6hermes2vmL10isLeapYearEd(double noundef %0)
  %cond = select i1 %call, i32 366, i32 365
  ret i32 %cond
}

; Function Attrs: mustprogress nounwind uwtable
define hidden noundef zeroext i1 @_ZN6hermes2vm10inLeapYearEd(double noundef %t) #0 {
entry:
  %t.addr = alloca double, align 8
  store double %t, ptr %t.addr, align 8
  %0 = load double, ptr %t.addr, align 8
  %call = call noundef double @_ZN6hermes2vm12yearFromTimeEd(double noundef %0)
  %call1 = call noundef i32 @_ZN6hermes2vm10daysInYearEd(double noundef %call)
  %cmp = icmp eq i32 %call1, 366
  ret i1 %cmp
}

; Function Attrs: mustprogress nounwind uwtable
define hidden noundef double @_ZN6hermes2vm11dayFromYearEd(double noundef %y) #0 {
entry:
  %y.addr = alloca double, align 8
  store double %y, ptr %y.addr, align 8
  %0 = load double, ptr %y.addr, align 8
  %sub = fsub double %0, 1.970000e+03
  %1 = load double, ptr %y.addr, align 8
  %sub1 = fsub double %1, 1.969000e+03
  %div = fdiv double %sub1, 4.000000e+00
  %2 = call double @llvm.floor.f64(double %div)
  %3 = call double @llvm.fmuladd.f64(double 3.650000e+02, double %sub, double %2)
  %4 = load double, ptr %y.addr, align 8
  %sub2 = fsub double %4, 1.901000e+03
  %div3 = fdiv double %sub2, 1.000000e+02
  %5 = call double @llvm.floor.f64(double %div3)
  %sub4 = fsub double %3, %5
  %6 = load double, ptr %y.addr, align 8
  %sub5 = fsub double %6, 1.601000e+03
  %div6 = fdiv double %sub5, 4.000000e+02
  %7 = call double @llvm.floor.f64(double %div6)
  %add = fadd double %sub4, %7
  ret double %add
}

; Function Attrs: mustprogress nounwind uwtable
define hidden noundef double @_ZN6hermes2vm3dayEd(double noundef %t) #0 {
entry:
  %t.addr = alloca double, align 8
  store double %t, ptr %t.addr, align 8
  %0 = load double, ptr %t.addr, align 8
  %div = fdiv double %0, 8.640000e+07
  %1 = call double @llvm.floor.f64(double %div)
  ret double %1
}

; Function Attrs: mustprogress nounwind uwtable
define hidden noundef i32 @_ZN6hermes2vm13monthFromTimeEd(double noundef %t) #0 {
entry:
  %retval = alloca i32, align 4
  %t.addr = alloca double, align 8
  %dayWithinYear = alloca double, align 8
  %kDaysInMonthNonLeap = alloca [11 x i8], align 1
  %curDay = alloca double, align 8
  %i = alloca i32, align 4
  store double %t, ptr %t.addr, align 8
  %0 = load double, ptr %t.addr, align 8
  %call = call noundef double @_ZN6hermes2vm3dayEd(double noundef %0)
  %1 = load double, ptr %t.addr, align 8
  %call1 = call noundef double @_ZN6hermes2vm12yearFromTimeEd(double noundef %1)
  %call2 = call noundef double @_ZN6hermes2vm11dayFromYearEd(double noundef %call1)
  %sub = fsub double %call, %call2
  store double %sub, ptr %dayWithinYear, align 8
  call void @llvm.memcpy.p0.p0.i64(ptr align 1 %kDaysInMonthNonLeap, ptr align 1 @__const._ZN6hermes2vm13monthFromTimeEd.kDaysInMonthNonLeap, i64 11, i1 false)
  store double 0.000000e+00, ptr %curDay, align 8
  store i32 0, ptr %i, align 4
  br label %for.cond

for.cond:                                         ; preds = %for.inc, %entry
  %2 = load i32, ptr %i, align 4
  %cmp = icmp ult i32 %2, 11
  br i1 %cmp, label %for.body, label %for.end

for.body:                                         ; preds = %for.cond
  %3 = load i32, ptr %i, align 4
  %cmp3 = icmp eq i32 %3, 1
  br i1 %cmp3, label %land.lhs.true, label %cond.false

land.lhs.true:                                    ; preds = %for.body
  %4 = load double, ptr %t.addr, align 8
  %call4 = call noundef zeroext i1 @_ZN6hermes2vm10inLeapYearEd(double noundef %4)
  br i1 %call4, label %cond.true, label %cond.false

cond.true:                                        ; preds = %land.lhs.true
  %5 = load i32, ptr %i, align 4
  %idxprom = zext i32 %5 to i64
  %arrayidx = getelementptr inbounds [11 x i8], ptr %kDaysInMonthNonLeap, i64 0, i64 %idxprom
  %6 = load i8, ptr %arrayidx, align 1
  %conv = sext i8 %6 to i32
  %add = add nsw i32 %conv, 1
  br label %cond.end

cond.false:                                       ; preds = %land.lhs.true, %for.body
  %7 = load i32, ptr %i, align 4
  %idxprom5 = zext i32 %7 to i64
  %arrayidx6 = getelementptr inbounds [11 x i8], ptr %kDaysInMonthNonLeap, i64 0, i64 %idxprom5
  %8 = load i8, ptr %arrayidx6, align 1
  %conv7 = sext i8 %8 to i32
  br label %cond.end

cond.end:                                         ; preds = %cond.false, %cond.true
  %cond = phi i32 [ %add, %cond.true ], [ %conv7, %cond.false ]
  %conv8 = sitofp i32 %cond to double
  %9 = load double, ptr %curDay, align 8
  %add9 = fadd double %9, %conv8
  store double %add9, ptr %curDay, align 8
  %10 = load double, ptr %dayWithinYear, align 8
  %11 = load double, ptr %curDay, align 8
  %cmp10 = fcmp olt double %10, %11
  br i1 %cmp10, label %if.then, label %if.end

if.then:                                          ; preds = %cond.end
  %12 = load i32, ptr %i, align 4
  store i32 %12, ptr %retval, align 4
  br label %return

if.end:                                           ; preds = %cond.end
  br label %for.inc

for.inc:                                          ; preds = %if.end
  %13 = load i32, ptr %i, align 4
  %inc = add i32 %13, 1
  store i32 %inc, ptr %i, align 4
  br label %for.cond, !llvm.loop !7

for.end:                                          ; preds = %for.cond
  store i32 11, ptr %retval, align 4
  br label %return

return:                                           ; preds = %for.end, %if.then
  %14 = load i32, ptr %retval, align 4
  ret i32 %14
}