; Function Attrs: mustprogress nofree nounwind memory(write) uwtable
define hidden noundef i32 @_ZN6hermes2vm13monthFromTimeEd(double noundef %t) local_unnamed_addr #5 {
entry:
  %div.i = fdiv double %t, 8.640000e+07
  %0 = tail call noundef double @llvm.floor.f64(double %div.i)
  %call1 = tail call noundef double @_ZN6hermes2vm12yearFromTimeEd(double noundef %t)
  %sub.i = fadd double %call1, -1.970000e+03
  %sub1.i = fadd double %call1, -1.969000e+03
  %div.i9 = fmul double %sub1.i, 2.500000e-01
  %1 = tail call double @llvm.floor.f64(double %div.i9)
  %2 = tail call double @llvm.fmuladd.f64(double %sub.i, double 3.650000e+02, double %1)
  %sub2.i = fadd double %call1, -1.901000e+03
  %div3.i = fdiv double %sub2.i, 1.000000e+02
  %3 = tail call double @llvm.floor.f64(double %div3.i)
  %sub4.i = fsub double %2, %3
  %sub5.i = fadd double %call1, -1.601000e+03
  %div6.i = fdiv double %sub5.i, 4.000000e+02
  %4 = tail call double @llvm.floor.f64(double %div6.i)
  %add.i = fadd double %4, %sub4.i
  %sub = fsub double %0, %add.i
  br label %for.body

for.body:                                         ; preds = %entry, %for.inc
  %indvars.iv = phi i64 [ 0, %entry ], [ %indvars.iv.next, %for.inc ]
  %curDay.011 = phi double [ 0.000000e+00, %entry ], [ %add9, %for.inc ]
  %cmp3 = icmp eq i64 %indvars.iv, 1
  br i1 %cmp3, label %land.lhs.true, label %cond.false

land.lhs.true:                                    ; preds = %for.body
  %call.i = tail call noundef double @_ZN6hermes2vm12yearFromTimeEd(double noundef %t)
  %call.i.i.i.i = tail call noundef double @fmod(double noundef %call.i, double noundef 4.000000e+00) #17
  %cmp.i.i.i = fcmp une double %call.i.i.i.i, 0.000000e+00
  br i1 %cmp.i.i.i, label %cond.false, label %if.end.i.i.i

if.end.i.i.i:                                     ; preds = %land.lhs.true
  %call.i3.i.i.i = tail call noundef double @fmod(double noundef %call.i, double noundef 1.000000e+02) #17
  %cmp2.i.i.i = fcmp une double %call.i3.i.i.i, 0.000000e+00
  br i1 %cmp2.i.i.i, label %cond.end, label %_ZN6hermes2vmL10isLeapYearEd.exit.i.i

_ZN6hermes2vmL10isLeapYearEd.exit.i.i:            ; preds = %if.end.i.i.i
  %call.i4.i.i.i = tail call noundef double @fmod(double noundef %call.i, double noundef 4.000000e+02) #17
  %cmp6.i.i.i = fcmp oeq double %call.i4.i.i.i, 0.000000e+00
  br i1 %cmp6.i.i.i, label %cond.end, label %cond.false

cond.false:                                       ; preds = %land.lhs.true, %_ZN6hermes2vmL10isLeapYearEd.exit.i.i, %for.body
  %arrayidx6 = getelementptr inbounds [11 x i8], ptr @__const._ZN6hermes2vm13monthFromTimeEd.kDaysInMonthNonLeap, i64 0, i64 %indvars.iv
  %5 = load i8, ptr %arrayidx6, align 1
  %conv7 = sext i8 %5 to i32
  br label %cond.end

cond.end:                                         ; preds = %_ZN6hermes2vmL10isLeapYearEd.exit.i.i, %if.end.i.i.i, %cond.false
  %cond = phi i32 [ %conv7, %cond.false ], [ 29, %if.end.i.i.i ], [ 29, %_ZN6hermes2vmL10isLeapYearEd.exit.i.i ]
  %conv8 = sitofp i32 %cond to double
  %add9 = fadd double %curDay.011, %conv8
  %cmp10 = fcmp olt double %sub, %add9
  br i1 %cmp10, label %return.split.loop.exit14, label %for.inc

for.inc:                                          ; preds = %cond.end
  %indvars.iv.next = add nuw nsw i64 %indvars.iv, 1
  %exitcond.not = icmp eq i64 %indvars.iv.next, 11
  br i1 %exitcond.not, label %return, label %for.body, !llvm.loop !7

return.split.loop.exit14:                         ; preds = %cond.end
  %6 = trunc i64 %indvars.iv to i32
  br label %return

return:                                           ; preds = %for.inc, %return.split.loop.exit14
  %retval.0 = phi i32 [ %6, %return.split.loop.exit14 ], [ 11, %for.inc ]
  ret i32 %retval.0
}